target datalayout = "e-m:e-p270:32:32-p271:32:32-p272:64:64-i64:64-i128:128-f80:128-n8:16:32:64-S128"
target triple = "x86_64-pc-linux-gnu"

%"struct.(anonymous namespace)::GAUSS" = type { double, double, double, double }

; Function Attrs: mustprogress nounwind uwtable
define internal noundef double @_ZL4sratdd(double noundef %0, double noundef %1) #5 {
  %3 = alloca double, align 8
  %4 = alloca double, align 8
  store double %0, ptr %3, align 8, !tbaa !3
  store double %1, ptr %4, align 8, !tbaa !3
  %5 = load double, ptr %3, align 8, !tbaa !3
  %6 = fsub double 1.000000e+00, %5
  %7 = load double, ptr %3, align 8, !tbaa !3
  %8 = fadd double 1.000000e+00, %7
  %9 = fdiv double %6, %8
  %10 = load double, ptr %4, align 8, !tbaa !3
  %11 = call double @pow(double noundef %9, double noundef %10) #7, !tbaa !14
  ret double %11
}

; Function Attrs: mustprogress uwtable
define hidden noundef ptr @_Z12pj_gauss_iniddPdS_(double noundef %0, double noundef %1, ptr noundef %2, ptr noundef %3) #0 {
  %5 = alloca ptr, align 8
  %6 = alloca double, align 8
  %7 = alloca double, align 8
  %8 = alloca ptr, align 8
  %9 = alloca ptr, align 8
  %10 = alloca double, align 8
  %11 = alloca double, align 8
  %12 = alloca double, align 8
  %13 = alloca ptr, align 8
  %14 = alloca i32, align 4
  %15 = alloca double, align 8
  store double %0, ptr %6, align 8, !tbaa !3
  store double %1, ptr %7, align 8, !tbaa !3
  store ptr %2, ptr %8, align 8, !tbaa !7
  store ptr %3, ptr %9, align 8, !tbaa !7
  call void @llvm.lifetime.start.p0(i64 8, ptr %10) #7
  call void @llvm.lifetime.start.p0(i64 8, ptr %11) #7
  call void @llvm.lifetime.start.p0(i64 8, ptr %12) #7
  call void @llvm.lifetime.start.p0(i64 8, ptr %13) #7
  %16 = call noalias ptr @malloc(i64 noundef 32) #8
  store ptr %16, ptr %13, align 8, !tbaa !10
  %17 = icmp eq ptr %16, null
  br i1 %17, label %18, label %19

18:                                               ; preds = %4
  store ptr null, ptr %5, align 8
  store i32 1, ptr %14, align 4
  br label %120

19:                                               ; preds = %4
  %20 = load double, ptr %6, align 8, !tbaa !3
  %21 = load double, ptr %6, align 8, !tbaa !3
  %22 = fmul double %20, %21
  store double %22, ptr %12, align 8, !tbaa !3
  %23 = load double, ptr %6, align 8, !tbaa !3
  %24 = load ptr, ptr %13, align 8, !tbaa !10
  %25 = getelementptr inbounds nuw %"struct.(anonymous namespace)::GAUSS", ptr %24, i32 0, i32 2
  store double %23, ptr %25, align 8, !tbaa !12
  %26 = load double, ptr %7, align 8, !tbaa !3
  %27 = call double @sin(double noundef %26) #7, !tbaa !14
  store double %27, ptr %10, align 8, !tbaa !3
  %28 = load double, ptr %7, align 8, !tbaa !3
  %29 = call double @cos(double noundef %28) #7, !tbaa !14
  store double %29, ptr %11, align 8, !tbaa !3
  %30 = load double, ptr %11, align 8, !tbaa !3
  %31 = load double, ptr %11, align 8, !tbaa !3
  %32 = fmul double %31, %30
  store double %32, ptr %11, align 8, !tbaa !3
  %33 = load double, ptr %12, align 8, !tbaa !3
  %34 = fsub double 1.000000e+00, %33
  %35 = call double @sqrt(double noundef %34) #7, !tbaa !14
  %36 = load double, ptr %12, align 8, !tbaa !3
  %37 = load double, ptr %10, align 8, !tbaa !3
  %38 = fmul double %36, %37
  %39 = load double, ptr %10, align 8, !tbaa !3
  %40 = fneg double %38
  %41 = call double @llvm.fmuladd.f64(double %40, double %39, double 1.000000e+00)
  %42 = fdiv double %35, %41
  %43 = load ptr, ptr %9, align 8, !tbaa !7
  store double %42, ptr %43, align 8, !tbaa !3
  %44 = load double, ptr %12, align 8, !tbaa !3
  %45 = load double, ptr %11, align 8, !tbaa !3
  %46 = fmul double %44, %45
  %47 = load double, ptr %11, align 8, !tbaa !3
  %48 = fmul double %46, %47
  %49 = load double, ptr %12, align 8, !tbaa !3
  %50 = fsub double 1.000000e+00, %49
  %51 = fdiv double %48, %50
  %52 = fadd double 1.000000e+00, %51
  %53 = call double @sqrt(double noundef %52) #7, !tbaa !14
  %54 = load ptr, ptr %13, align 8, !tbaa !10
  %55 = getelementptr inbounds nuw %"struct.(anonymous namespace)::GAUSS", ptr %54, i32 0, i32 0
  store double %53, ptr %55, align 8, !tbaa !16
  %56 = load ptr, ptr %13, align 8, !tbaa !10
  %57 = getelementptr inbounds nuw %"struct.(anonymous namespace)::GAUSS", ptr %56, i32 0, i32 0
  %58 = load double, ptr %57, align 8, !tbaa !16
  %59 = fcmp oeq double %58, 0.000000e+00
  br i1 %59, label %60, label %62

60:                                               ; preds = %19
  %61 = load ptr, ptr %13, align 8, !tbaa !10
  call void @free(ptr noundef %61) #7
  store ptr null, ptr %5, align 8
  store i32 1, ptr %14, align 4
  br label %120

62:                                               ; preds = %19
  %63 = load double, ptr %10, align 8, !tbaa !3
  %64 = load ptr, ptr %13, align 8, !tbaa !10
  %65 = getelementptr inbounds nuw %"struct.(anonymous namespace)::GAUSS", ptr %64, i32 0, i32 0
  %66 = load double, ptr %65, align 8, !tbaa !16
  %67 = fdiv double %63, %66
  %68 = call double @asin(double noundef %67) #7, !tbaa !14
  %69 = load ptr, ptr %8, align 8, !tbaa !7
  store double %68, ptr %69, align 8, !tbaa !3
  %70 = load ptr, ptr %13, align 8, !tbaa !10
  %71 = getelementptr inbounds nuw %"struct.(anonymous namespace)::GAUSS", ptr %70, i32 0, i32 0
  %72 = load double, ptr %71, align 8, !tbaa !16
  %73 = fmul double 5.000000e-01, %72
  %74 = load double, ptr %6, align 8, !tbaa !3
  %75 = fmul double %73, %74
  %76 = load ptr, ptr %13, align 8, !tbaa !10
  %77 = getelementptr inbounds nuw %"struct.(anonymous namespace)::GAUSS", ptr %76, i32 0, i32 3
  store double %75, ptr %77, align 8, !tbaa !17
  call void @llvm.lifetime.start.p0(i64 8, ptr %15) #7
  %78 = load ptr, ptr %13, align 8, !tbaa !10
  %79 = getelementptr inbounds nuw %"struct.(anonymous namespace)::GAUSS", ptr %78, i32 0, i32 2
  %80 = load double, ptr %79, align 8, !tbaa !12
  %81 = load double, ptr %10, align 8, !tbaa !3
  %82 = fmul double %80, %81
  %83 = load ptr, ptr %13, align 8, !tbaa !10
  %84 = getelementptr inbounds nuw %"struct.(anonymous namespace)::GAUSS", ptr %83, i32 0, i32 3
  %85 = load double, ptr %84, align 8, !tbaa !17
  %86 = call noundef double @_ZL4sratdd(double noundef %82, double noundef %85)
  store double %86, ptr %15, align 8, !tbaa !3
  %87 = load double, ptr %15, align 8, !tbaa !3
  %88 = fcmp oeq double %87, 0.000000e+00
  br i1 %88, label %89, label %91

89:                                               ; preds = %62
  %90 = load ptr, ptr %13, align 8, !tbaa !10
  call void @free(ptr noundef %90) #7
  store ptr null, ptr %5, align 8
  store i32 1, ptr %14, align 4
  br label %119

91:                                               ; preds = %62
  %92 = load double, ptr %7, align 8, !tbaa !3
  %93 = call double @llvm.fmuladd.f64(double 5.000000e-01, double %92, double 0x3FE921FB54442D18)
  %94 = fcmp olt double %93, 1.000000e-10
  br i1 %94, label %95, label %100

95:                                               ; preds = %91
  %96 = load double, ptr %15, align 8, !tbaa !3
  %97 = fdiv double 1.000000e+00, %96
  %98 = load ptr, ptr %13, align 8, !tbaa !10
  %99 = getelementptr inbounds nuw %"struct.(anonymous namespace)::GAUSS", ptr %98, i32 0, i32 1
  store double %97, ptr %99, align 8, !tbaa !18
  br label %117

100:                                              ; preds = %91
  %101 = load ptr, ptr %8, align 8, !tbaa !7
  %102 = load double, ptr %101, align 8, !tbaa !3
  %103 = call double @llvm.fmuladd.f64(double 5.000000e-01, double %102, double 0x3FE921FB54442D18)
  %104 = call double @tan(double noundef %103) #7, !tbaa !14
  %105 = load double, ptr %7, align 8, !tbaa !3
  %106 = call double @llvm.fmuladd.f64(double 5.000000e-01, double %105, double 0x3FE921FB54442D18)
  %107 = call double @tan(double noundef %106) #7, !tbaa !14
  %108 = load ptr, ptr %13, align 8, !tbaa !10
  %109 = getelementptr inbounds nuw %"struct.(anonymous namespace)::GAUSS", ptr %108, i32 0, i32 0
  %110 = load double, ptr %109, align 8, !tbaa !16
  %111 = call double @pow(double noundef %107, double noundef %110) #7, !tbaa !14
  %112 = load double, ptr %15, align 8, !tbaa !3
  %113 = fmul double %111, %112
  %114 = fdiv double %104, %113
  %115 = load ptr, ptr %13, align 8, !tbaa !10
  %116 = getelementptr inbounds nuw %"struct.(anonymous namespace)::GAUSS", ptr %115, i32 0, i32 1
  store double %114, ptr %116, align 8, !tbaa !18
  br label %117

117:                                              ; preds = %100, %95
  %118 = load ptr, ptr %13, align 8, !tbaa !10
  store ptr %118, ptr %5, align 8
  store i32 1, ptr %14, align 4
  br label %119

119:                                              ; preds = %117, %89
  call void @llvm.lifetime.end.p0(i64 8, ptr %15) #7
  br label %120

120:                                              ; preds = %119, %60, %18
  call void @llvm.lifetime.end.p0(i64 8, ptr %13) #7
  call void @llvm.lifetime.end.p0(i64 8, ptr %12) #7
  call void @llvm.lifetime.end.p0(i64 8, ptr %11) #7
  call void @llvm.lifetime.end.p0(i64 8, ptr %10) #7
  %121 = load ptr, ptr %5, align 8
  ret ptr %121
}