; Function Attrs: mustprogress nounwind willreturn memory(readwrite, argmem: write) uwtable
define hidden noalias noundef ptr @_Z12pj_gauss_iniddPdS_(double noundef %0, double noundef %1, ptr noundef writeonly captures(none) %2, ptr noundef writeonly captures(none) %3) local_unnamed_addr #0 {
  %5 = tail call noalias dereferenceable_or_null(32) ptr @malloc(i64 noundef 32) #8
  %6 = icmp eq ptr %5, null
  br i1 %6, label %53, label %7

7:                                                ; preds = %4
  %8 = fmul double %0, %0
  %9 = getelementptr inbounds nuw i8, ptr %5, i64 16
  store double %0, ptr %9, align 8, !tbaa !3
  %10 = tail call double @sin(double noundef %1) #9, !tbaa !8
  %11 = tail call double @cos(double noundef %1) #9, !tbaa !8
  %12 = fmul double %11, %11
  %13 = fsub double 1.000000e+00, %8
  %14 = tail call double @sqrt(double noundef %13) #9, !tbaa !8
  %15 = fneg double %10
  %16 = fmul double %8, %15
  %17 = tail call double @llvm.fmuladd.f64(double %16, double %10, double 1.000000e+00)
  %18 = fdiv double %14, %17
  store double %18, ptr %3, align 8, !tbaa !10
  %19 = fmul double %8, %12
  %20 = fmul double %12, %19
  %21 = fdiv double %20, %13
  %22 = fadd double %21, 1.000000e+00
  %23 = tail call double @sqrt(double noundef %22) #9, !tbaa !8
  store double %23, ptr %5, align 8, !tbaa !11
  %24 = fcmp oeq double %23, 0.000000e+00
  br i1 %24, label %25, label %26

25:                                               ; preds = %7
  tail call void @free(ptr noundef nonnull %5) #9
  br label %53

26:                                               ; preds = %7
  %27 = fdiv double %10, %23
  %28 = tail call double @asin(double noundef %27) #9, !tbaa !8
  store double %28, ptr %2, align 8, !tbaa !10
  %29 = fmul double %23, 5.000000e-01
  %30 = fmul double %0, %29
  %31 = getelementptr inbounds nuw i8, ptr %5, i64 24
  store double %30, ptr %31, align 8, !tbaa !12
  %32 = fmul double %0, %10
  %33 = fsub double 1.000000e+00, %32
  %34 = fadd double %32, 1.000000e+00
  %35 = fdiv double %33, %34
  %36 = tail call noundef double @pow(double noundef %35, double noundef %30) #9, !tbaa !8
  %37 = fcmp oeq double %36, 0.000000e+00
  br i1 %37, label %38, label %39

38:                                               ; preds = %26
  tail call void @free(ptr noundef nonnull %5) #9
  br label %53

39:                                               ; preds = %26
  %40 = tail call double @llvm.fmuladd.f64(double %1, double 5.000000e-01, double 0x3FE921FB54442D18)
  %41 = fcmp olt double %40, 1.000000e-10
  br i1 %41, label %42, label %45

42:                                               ; preds = %39
  %43 = fdiv double 1.000000e+00, %36
  %44 = getelementptr inbounds nuw i8, ptr %5, i64 8
  store double %43, ptr %44, align 8, !tbaa !13
  br label %53

45:                                               ; preds = %39
  %46 = tail call double @llvm.fmuladd.f64(double %28, double 5.000000e-01, double 0x3FE921FB54442D18)
  %47 = tail call double @tan(double noundef %46) #9, !tbaa !8
  %48 = tail call double @tan(double noundef %40) #9, !tbaa !8
  %49 = tail call double @pow(double noundef %48, double noundef %23) #9, !tbaa !8
  %50 = fmul double %36, %49
  %51 = fdiv double %47, %50
  %52 = getelementptr inbounds nuw i8, ptr %5, i64 8
  store double %51, ptr %52, align 8, !tbaa !13
  br label %53

53:                                               ; preds = %38, %45, %42, %4, %25
  %.0 = phi ptr [ null, %25 ], [ null, %4 ], [ null, %38 ], [ %5, %45 ], [ %5, %42 ]
  ret ptr %.0
}